; Function Attrs: mustprogress uwtable
define void @_ZN7rocksdb15CompactionState24AggregateCompactionStatsERNS_13InternalStats19CompactionStatsFullERNS_18CompactionJobStatsE(ptr noundef nonnull readonly align 8 captures(none) dereferenceable(48) %0, ptr noundef nonnull align 8 dereferenceable(440) %1, ptr noundef nonnull align 8 dereferenceable(304) %2) local_unnamed_addr #4 align 2 {
  %4 = getelementptr inbounds nuw i8, ptr %0, i64 8
  %5 = load ptr, ptr %4, align 8, !tbaa !18
  %6 = getelementptr inbounds nuw i8, ptr %0, i64 16
  %7 = load ptr, ptr %6, align 8, !tbaa !18
  %.not10 = icmp eq ptr %5, %7
  br i1 %.not10, label %._crit_edge, label %.lr.ph

._crit_edge:                                      ; preds = %.lr.ph, %3
  ret void

.lr.ph:                                           ; preds = %3, %.lr.ph
  %.sroa.07.011 = phi ptr [ %9, %.lr.ph ], [ %5, %3 ]
  tail call void @_ZNK7rocksdb18SubcompactionState30AggregateCompactionOutputStatsERNS_13InternalStats19CompactionStatsFullE(ptr noundef nonnull align 8 dereferenceable(1080) %.sroa.07.011, ptr noundef nonnull align 8 dereferenceable(440) %1)
  %8 = getelementptr inbounds nuw i8, ptr %.sroa.07.011, i64 96
  tail call void @_ZN7rocksdb18CompactionJobStats3AddERKS0_(ptr noundef nonnull align 8 dereferenceable(304) %2, ptr noundef nonnull align 8 dereferenceable(304) %8)
  %9 = getelementptr inbounds nuw i8, ptr %.sroa.07.011, i64 1080
  %.not = icmp eq ptr %9, %7
  br i1 %.not, label %._crit_edge, label %.lr.ph
}